; ModuleID = '24/2065.c'
source_filename = "24/2065.c"
target datalayout = "e-m:e-p270:32:32-p271:32:32-p272:64:64-i64:64-f80:128-n8:16:32:64-S128"
target triple = "x86_64-pc-linux-gnu"

@.str = private unnamed_addr constant [4 x i8] c"%s\0A\00", align 1
@.str.1 = private unnamed_addr constant [3 x i8] c"%s\00", align 1

; Function Attrs: noinline nounwind uwtable
define dso_local i32 @main() #0 {
  %1 = alloca i32, align 4
  %2 = alloca i32, align 4
  %3 = alloca i32, align 4
  %4 = alloca i32, align 4
  %5 = alloca i32, align 4
  %6 = alloca i32, align 4
  %7 = alloca [500 x i32], align 16
  %8 = alloca i32, align 4
  %9 = alloca i32, align 4
  %10 = alloca i32, align 4
  %11 = alloca i32, align 4
  %12 = alloca [500 x i8], align 16
  %13 = alloca [200 x [50 x i8]], align 16
  store i32 0, i32* %1, align 4
  store i32 0, i32* %4, align 4
  store i32 0, i32* %5, align 4
  store i32 1, i32* %6, align 4
  store i32 0, i32* %8, align 4
  store i32 0, i32* %10, align 4
  store i32 0, i32* %11, align 4
  %14 = getelementptr inbounds [500 x i8], [500 x i8]* %12, i64 0, i64 0
  %15 = call i32 (i8*, ...) bitcast (i32 (...)* @gets to i32 (i8*, ...)*)(i8* %14)
  %16 = getelementptr inbounds [500 x i8], [500 x i8]* %12, i64 0, i64 0
  %17 = call i64 @strlen(i8* %16) #3
  %18 = trunc i64 %17 to i32
  store i32 %18, i32* %3, align 4
  store i32 0, i32* %2, align 4
  br label %19

19:                                               ; preds = %102, %0
  %20 = load i32, i32* %2, align 4
  %21 = load i32, i32* %3, align 4
  %22 = icmp slt i32 %20, %21
  br i1 %22, label %23, label %105

23:                                               ; preds = %19
  %24 = load i32, i32* %2, align 4
  %25 = sext i32 %24 to i64
  %26 = getelementptr inbounds [500 x i8], [500 x i8]* %12, i64 0, i64 %25
  %27 = load i8, i8* %26, align 1
  %28 = sext i8 %27 to i32
  %29 = icmp ne i32 %28, 32
  br i1 %29, label %30, label %50

30:                                               ; preds = %23
  %31 = load i32, i32* %2, align 4
  %32 = sext i32 %31 to i64
  %33 = getelementptr inbounds [500 x i8], [500 x i8]* %12, i64 0, i64 %32
  %34 = load i8, i8* %33, align 1
  %35 = sext i8 %34 to i32
  %36 = icmp ne i32 %35, 44
  br i1 %36, label %37, label %50

37:                                               ; preds = %30
  %38 = load i32, i32* %2, align 4
  %39 = sext i32 %38 to i64
  %40 = getelementptr inbounds [500 x i8], [500 x i8]* %12, i64 0, i64 %39
  %41 = load i8, i8* %40, align 1
  %42 = load i32, i32* %4, align 4
  %43 = sext i32 %42 to i64
  %44 = getelementptr inbounds [200 x [50 x i8]], [200 x [50 x i8]]* %13, i64 0, i64 %43
  %45 = load i32, i32* %5, align 4
  %46 = sext i32 %45 to i64
  %47 = getelementptr inbounds [50 x i8], [50 x i8]* %44, i64 0, i64 %46
  store i8 %41, i8* %47, align 1
  %48 = load i32, i32* %5, align 4
  %49 = add nsw i32 %48, 1
  store i32 %49, i32* %5, align 4
  br label %95

50:                                               ; preds = %30, %23
  %51 = load i32, i32* %2, align 4
  %52 = sext i32 %51 to i64
  %53 = getelementptr inbounds [500 x i8], [500 x i8]* %12, i64 0, i64 %52
  %54 = load i8, i8* %53, align 1
  %55 = sext i8 %54 to i32
  %56 = icmp eq i32 %55, 32
  br i1 %56, label %64, label %57

57:                                               ; preds = %50
  %58 = load i32, i32* %2, align 4
  %59 = sext i32 %58 to i64
  %60 = getelementptr inbounds [500 x i8], [500 x i8]* %12, i64 0, i64 %59
  %61 = load i8, i8* %60, align 1
  %62 = sext i8 %61 to i32
  %63 = icmp eq i32 %62, 44
  br i1 %63, label %64, label %91

64:                                               ; preds = %57, %50
  %65 = load i32, i32* %2, align 4
  %66 = sub nsw i32 %65, 1
  %67 = sext i32 %66 to i64
  %68 = getelementptr inbounds [500 x i8], [500 x i8]* %12, i64 0, i64 %67
  %69 = load i8, i8* %68, align 1
  %70 = sext i8 %69 to i32
  %71 = icmp ne i32 %70, 32
  br i1 %71, label %72, label %91

72:                                               ; preds = %64
  %73 = load i32, i32* %2, align 4
  %74 = sub nsw i32 %73, 1
  %75 = sext i32 %74 to i64
  %76 = getelementptr inbounds [500 x i8], [500 x i8]* %12, i64 0, i64 %75
  %77 = load i8, i8* %76, align 1
  %78 = sext i8 %77 to i32
  %79 = icmp ne i32 %78, 44
  br i1 %79, label %80, label %91

80:                                               ; preds = %72
  %81 = load i32, i32* %4, align 4
  %82 = sext i32 %81 to i64
  %83 = getelementptr inbounds [200 x [50 x i8]], [200 x [50 x i8]]* %13, i64 0, i64 %82
  %84 = load i32, i32* %5, align 4
  %85 = sext i32 %84 to i64
  %86 = getelementptr inbounds [50 x i8], [50 x i8]* %83, i64 0, i64 %85
  store i8 0, i8* %86, align 1
  %87 = load i32, i32* %4, align 4
  %88 = add nsw i32 %87, 1
  store i32 %88, i32* %4, align 4
  store i32 0, i32* %5, align 4
  %89 = load i32, i32* %6, align 4
  %90 = add nsw i32 %89, 1
  store i32 %90, i32* %6, align 4
  br label %94

91:                                               ; preds = %72, %64, %57
  %92 = load i32, i32* %4, align 4
  store i32 %92, i32* %4, align 4
  store i32 0, i32* %5, align 4
  %93 = load i32, i32* %6, align 4
  store i32 %93, i32* %6, align 4
  br label %94

94:                                               ; preds = %91, %80
  br label %95

95:                                               ; preds = %94, %37
  %96 = load i32, i32* %4, align 4
  %97 = sext i32 %96 to i64
  %98 = getelementptr inbounds [200 x [50 x i8]], [200 x [50 x i8]]* %13, i64 0, i64 %97
  %99 = load i32, i32* %5, align 4
  %100 = sext i32 %99 to i64
  %101 = getelementptr inbounds [50 x i8], [50 x i8]* %98, i64 0, i64 %100
  store i8 0, i8* %101, align 1
  br label %102

102:                                              ; preds = %95
  %103 = load i32, i32* %2, align 4
  %104 = add nsw i32 %103, 1
  store i32 %104, i32* %2, align 4
  br label %19

105:                                              ; preds = %19
  store i32 0, i32* %2, align 4
  br label %106

106:                                              ; preds = %120, %105
  %107 = load i32, i32* %2, align 4
  %108 = load i32, i32* %6, align 4
  %109 = icmp slt i32 %107, %108
  br i1 %109, label %110, label %123

110:                                              ; preds = %106
  %111 = load i32, i32* %2, align 4
  %112 = sext i32 %111 to i64
  %113 = getelementptr inbounds [200 x [50 x i8]], [200 x [50 x i8]]* %13, i64 0, i64 %112
  %114 = getelementptr inbounds [50 x i8], [50 x i8]* %113, i64 0, i64 0
  %115 = call i64 @strlen(i8* %114) #3
  %116 = trunc i64 %115 to i32
  %117 = load i32, i32* %2, align 4
  %118 = sext i32 %117 to i64
  %119 = getelementptr inbounds [500 x i32], [500 x i32]* %7, i64 0, i64 %118
  store i32 %116, i32* %119, align 4
  br label %120

120:                                              ; preds = %110
  %121 = load i32, i32* %2, align 4
  %122 = add nsw i32 %121, 1
  store i32 %122, i32* %2, align 4
  br label %106

123:                                              ; preds = %106
  store i32 0, i32* %2, align 4
  br label %124

124:                                              ; preds = %145, %123
  %125 = load i32, i32* %2, align 4
  %126 = load i32, i32* %6, align 4
  %127 = icmp slt i32 %125, %126
  br i1 %127, label %128, label %148

128:                                              ; preds = %124
  %129 = load i32, i32* %8, align 4
  %130 = load i32, i32* %2, align 4
  %131 = sext i32 %130 to i64
  %132 = getelementptr inbounds [500 x i32], [500 x i32]* %7, i64 0, i64 %131
  %133 = load i32, i32* %132, align 4
  %134 = icmp slt i32 %129, %133
  br i1 %134, label %135, label %141

135:                                              ; preds = %128
  %136 = load i32, i32* %2, align 4
  %137 = sext i32 %136 to i64
  %138 = getelementptr inbounds [500 x i32], [500 x i32]* %7, i64 0, i64 %137
  %139 = load i32, i32* %138, align 4
  store i32 %139, i32* %8, align 4
  %140 = load i32, i32* %2, align 4
  store i32 %140, i32* %10, align 4
  br label %144

141:                                              ; preds = %128
  %142 = load i32, i32* %8, align 4
  store i32 %142, i32* %8, align 4
  %143 = load i32, i32* %10, align 4
  store i32 %143, i32* %10, align 4
  br label %144

144:                                              ; preds = %141, %135
  br label %145

145:                                              ; preds = %144
  %146 = load i32, i32* %2, align 4
  %147 = add nsw i32 %146, 1
  store i32 %147, i32* %2, align 4
  br label %124

148:                                              ; preds = %124
  %149 = load i32, i32* %8, align 4
  store i32 %149, i32* %9, align 4
  store i32 0, i32* %2, align 4
  br label %150

150:                                              ; preds = %171, %148
  %151 = load i32, i32* %2, align 4
  %152 = load i32, i32* %6, align 4
  %153 = icmp slt i32 %151, %152
  br i1 %153, label %154, label %174

154:                                              ; preds = %150
  %155 = load i32, i32* %9, align 4
  %156 = load i32, i32* %2, align 4
  %157 = sext i32 %156 to i64
  %158 = getelementptr inbounds [500 x i32], [500 x i32]* %7, i64 0, i64 %157
  %159 = load i32, i32* %158, align 4
  %160 = icmp sgt i32 %155, %159
  br i1 %160, label %161, label %167

161:                                              ; preds = %154
  %162 = load i32, i32* %2, align 4
  %163 = sext i32 %162 to i64
  %164 = getelementptr inbounds [500 x i32], [500 x i32]* %7, i64 0, i64 %163
  %165 = load i32, i32* %164, align 4
  store i32 %165, i32* %9, align 4
  %166 = load i32, i32* %2, align 4
  store i32 %166, i32* %11, align 4
  br label %170

167:                                              ; preds = %154
  %168 = load i32, i32* %9, align 4
  store i32 %168, i32* %9, align 4
  %169 = load i32, i32* %11, align 4
  store i32 %169, i32* %11, align 4
  br label %170

170:                                              ; preds = %167, %161
  br label %171

171:                                              ; preds = %170
  %172 = load i32, i32* %2, align 4
  %173 = add nsw i32 %172, 1
  store i32 %173, i32* %2, align 4
  br label %150

174:                                              ; preds = %150
  %175 = load i32, i32* %10, align 4
  %176 = sext i32 %175 to i64
  %177 = getelementptr inbounds [200 x [50 x i8]], [200 x [50 x i8]]* %13, i64 0, i64 %176
  %178 = getelementptr inbounds [50 x i8], [50 x i8]* %177, i64 0, i64 0
  %179 = call i32 (i8*, ...) @printf(i8* getelementptr inbounds ([4 x i8], [4 x i8]* @.str, i64 0, i64 0), i8* %178)
  %180 = load i32, i32* %11, align 4
  %181 = sext i32 %180 to i64
  %182 = getelementptr inbounds [200 x [50 x i8]], [200 x [50 x i8]]* %13, i64 0, i64 %181
  %183 = getelementptr inbounds [50 x i8], [50 x i8]* %182, i64 0, i64 0
  %184 = call i32 (i8*, ...) @printf(i8* getelementptr inbounds ([3 x i8], [3 x i8]* @.str.1, i64 0, i64 0), i8* %183)
  ret i32 0
}

declare dso_local i32 @gets(...) #1

; Function Attrs: nounwind readonly
declare dso_local i64 @strlen(i8*) #2

declare dso_local i32 @printf(i8*, ...) #1


!llvm.module.flags = !{!0}
!llvm.ident = !{!1}

!0 = !{i32 1, !"wchar_size", i32 4}
!1 = !{!"clang version 10.0.0-4ubuntu1 "}
